target datalayout = "e-m:e-p270:32:32-p271:32:32-p272:64:64-i64:64-i128:128-f80:128-n8:16:32:64-S128"
target triple = "x86_64-pc-linux-gnu"

@.str.4 = private unnamed_addr constant [2 x i8] c"\0A\00", align 1
@.str.5 = private unnamed_addr constant [36 x i8] c"    dffunmap [options] [selection]\0A\00", align 1
@.str.6 = private unnamed_addr constant [79 x i8] c"This pass transforms FF types with clock enable and/or synchronous reset into\0A\00", align 1
@.str.7 = private unnamed_addr constant [77 x i8] c"their base type (with neither clock enable nor sync reset) by emulating the\0A\00", align 1
@.str.8 = private unnamed_addr constant [73 x i8] c"clock enable and synchronous reset with multiplexers on the cell input.\0A\00", align 1
@.str.9 = private unnamed_addr constant [14 x i8] c"    -ce-only\0A\00", align 1
@.str.10 = private unnamed_addr constant [67 x i8] c"        unmap only clock enables, leave synchronous resets alone.\0A\00", align 1
@.str.11 = private unnamed_addr constant [16 x i8] c"    -srst-only\0A\00", align 1
@.str.12 = private unnamed_addr constant [67 x i8] c"        unmap only synchronous resets, leave clock enables alone.\0A\00", align 1

; Function Attrs: mustprogress uwtable
define internal void @_ZN12_GLOBAL__N_112DffunmapPass4helpEv(ptr noundef nonnull align 8 dereferenceable(104) %0) unnamed_addr #4 align 2 {
  %2 = alloca ptr, align 8
  store ptr %0, ptr %2, align 8, !tbaa !6
  call void (ptr, ...) @_ZN5Yosys3logEPKcz(ptr noundef @.str.4)
  call void (ptr, ...) @_ZN5Yosys3logEPKcz(ptr noundef @.str.5)
  call void (ptr, ...) @_ZN5Yosys3logEPKcz(ptr noundef @.str.4)
  call void (ptr, ...) @_ZN5Yosys3logEPKcz(ptr noundef @.str.6)
  call void (ptr, ...) @_ZN5Yosys3logEPKcz(ptr noundef @.str.7)
  call void (ptr, ...) @_ZN5Yosys3logEPKcz(ptr noundef @.str.8)
  call void (ptr, ...) @_ZN5Yosys3logEPKcz(ptr noundef @.str.4)
  call void (ptr, ...) @_ZN5Yosys3logEPKcz(ptr noundef @.str.9)
  call void (ptr, ...) @_ZN5Yosys3logEPKcz(ptr noundef @.str.10)
  call void (ptr, ...) @_ZN5Yosys3logEPKcz(ptr noundef @.str.4)
  call void (ptr, ...) @_ZN5Yosys3logEPKcz(ptr noundef @.str.11)
  call void (ptr, ...) @_ZN5Yosys3logEPKcz(ptr noundef @.str.12)
  call void (ptr, ...) @_ZN5Yosys3logEPKcz(ptr noundef @.str.4)
  ret void
}